target datalayout = "e-m:e-p270:32:32-p271:32:32-p272:64:64-i64:64-i128:128-f80:128-n8:16:32:64-S128"
target triple = "x86_64-pc-linux-gnu"

%struct._ProcessHandler = type { ptr, ptr, ptr, i32, i32, ptr }
%struct.FillData = type { ptr, [256 x %struct._Point], i32, i32, i32, i32 }
%struct._Point = type { i32, i32, i8, ptr, ptr, ptr, i8, ptr }

; Function Attrs: nounwind uwtable
define internal void @endSubPath(ptr noundef %0) #0 {
  %2 = alloca ptr, align 8
  %3 = alloca ptr, align 8
  store ptr %0, ptr %2, align 8
  %4 = load ptr, ptr %2, align 8
  %5 = getelementptr inbounds %struct._ProcessHandler, ptr %4, i32 0, i32 5
  %6 = load ptr, ptr %5, align 8
  store ptr %6, ptr %3, align 8
  %7 = load ptr, ptr %3, align 8
  %8 = getelementptr inbounds %struct.FillData, ptr %7, i32 0, i32 2
  %9 = load i32, ptr %8, align 8
  %10 = icmp ne i32 %9, 0
  br i1 %10, label %11, label %24

11:                                               ; preds = %1
  br label %12

12:                                               ; preds = %11
  %13 = load ptr, ptr %3, align 8
  %14 = getelementptr inbounds %struct.FillData, ptr %13, i32 0, i32 0
  %15 = load ptr, ptr %14, align 8
  %16 = load ptr, ptr %3, align 8
  %17 = getelementptr inbounds %struct.FillData, ptr %16, i32 0, i32 2
  %18 = load i32, ptr %17, align 8
  %19 = sub nsw i32 %18, 1
  %20 = sext i32 %19 to i64
  %21 = getelementptr inbounds %struct._Point, ptr %15, i64 %20
  %22 = getelementptr inbounds %struct._Point, ptr %21, i32 0, i32 2
  store i8 1, ptr %22, align 8
  br label %23

23:                                               ; preds = %12
  br label %24

24:                                               ; preds = %23, %1
  ret void
}