; Function Attrs: mustprogress nofree norecurse nosync nounwind willreturn memory(readwrite, inaccessiblemem: none) uwtable
define internal void @endSubPath(ptr nocapture noundef readonly %0) #5 {
  %2 = getelementptr inbounds i8, ptr %0, i64 32
  %3 = load ptr, ptr %2, align 8
  %4 = getelementptr inbounds i8, ptr %3, i64 14344
  %5 = load i32, ptr %4, align 8
  %.not = icmp eq i32 %5, 0
  br i1 %.not, label %11, label %6

6:                                                ; preds = %1
  %7 = load ptr, ptr %3, align 8
  %8 = sext i32 %5 to i64
  %9 = getelementptr %struct._Point, ptr %7, i64 %8
  %10 = getelementptr i8, ptr %9, i64 -48
  store i8 1, ptr %10, align 8
  br label %11

11:                                               ; preds = %6, %1
  ret void
}